target datalayout = "e-m:e-p270:32:32-p271:32:32-p272:64:64-i64:64-i128:128-f80:128-n8:16:32:64-S128"
target triple = "x86_64-pc-linux-gnu"

%struct.rb_data_type_struct = type { ptr, %struct.anon, ptr, ptr, i64 }
%struct.anon = type { ptr, ptr, ptr, ptr, [1 x ptr] }

@ossl_ts_resp_type = internal constant %struct.rb_data_type_struct { ptr @.str.50, %struct.anon { ptr null, ptr @ossl_ts_resp_free, ptr null, ptr null, [1 x ptr] zeroinitializer }, ptr null, ptr null, i64 33 }, align 8
@rb_eRuntimeError = external global i64, align 8
@.str.49 = private unnamed_addr constant [28 x i8] c"TS_RESP wasn't initialized.\00", align 1

; Function Attrs: inlinehint nounwind sspstrong uwtable
define internal ptr @ossl_check_const_ASN1_UTF8STRING_sk_type(ptr noundef %0) #3 {
  %2 = alloca ptr, align 8
  store ptr %0, ptr %2, align 8, !tbaa !27
  %3 = load ptr, ptr %2, align 8, !tbaa !27
  ret ptr %3
}

; Function Attrs: nounwind sspstrong uwtable
define internal i64 @ossl_ts_resp_get_status_text(i64 noundef %0) #0 {
  %2 = alloca i64, align 8
  %3 = alloca ptr, align 8
  %4 = alloca ptr, align 8
  %5 = alloca ptr, align 8
  %6 = alloca ptr, align 8
  %7 = alloca i32, align 4
  %8 = alloca i64, align 8
  store i64 %0, ptr %2, align 8, !tbaa !6
  call void @llvm.lifetime.start.p0(i64 8, ptr %3) #16
  call void @llvm.lifetime.start.p0(i64 8, ptr %4) #16
  call void @llvm.lifetime.start.p0(i64 8, ptr %5) #16
  call void @llvm.lifetime.start.p0(i64 8, ptr %6) #16
  call void @llvm.lifetime.start.p0(i64 4, ptr %7) #16
  call void @llvm.lifetime.start.p0(i64 8, ptr %8) #16
  %9 = call i64 @rb_ary_new()
  store i64 %9, ptr %8, align 8, !tbaa !6
  br label %10

10:                                               ; preds = %1
  %11 = load i64, ptr %2, align 8, !tbaa !6
  %12 = call ptr @rb_check_typeddata(i64 noundef %11, ptr noundef @ossl_ts_resp_type)
  store ptr %12, ptr %3, align 8, !tbaa !13
  %13 = load ptr, ptr %3, align 8, !tbaa !13
  %14 = icmp ne ptr %13, null
  br i1 %14, label %17, label %15

15:                                               ; preds = %10
  %16 = load i64, ptr @rb_eRuntimeError, align 8, !tbaa !6
  call void (i64, ptr, ...) @ossl_raise(i64 noundef %16, ptr noundef @.str.49) #17
  unreachable

17:                                               ; preds = %10
  br label %18

18:                                               ; preds = %17
  br label %19

19:                                               ; preds = %18
  %20 = load ptr, ptr %3, align 8, !tbaa !13
  %21 = call ptr @TS_RESP_get_status_info(ptr noundef %20)
  store ptr %21, ptr %4, align 8, !tbaa !23
  %22 = load ptr, ptr %4, align 8, !tbaa !23
  %23 = call ptr @TS_STATUS_INFO_get0_text(ptr noundef %22)
  store ptr %23, ptr %5, align 8, !tbaa !27
  %24 = icmp ne ptr %23, null
  br i1 %24, label %25, label %45

25:                                               ; preds = %19
  store i32 0, ptr %7, align 4, !tbaa !29
  br label %26

26:                                               ; preds = %41, %25
  %27 = load i32, ptr %7, align 4, !tbaa !29
  %28 = load ptr, ptr %5, align 8, !tbaa !27
  %29 = call ptr @ossl_check_const_ASN1_UTF8STRING_sk_type(ptr noundef %28)
  %30 = call i32 @OPENSSL_sk_num(ptr noundef %29)
  %31 = icmp slt i32 %27, %30
  br i1 %31, label %32, label %44

32:                                               ; preds = %26
  %33 = load ptr, ptr %5, align 8, !tbaa !27
  %34 = call ptr @ossl_check_const_ASN1_UTF8STRING_sk_type(ptr noundef %33)
  %35 = load i32, ptr %7, align 4, !tbaa !29
  %36 = call ptr @OPENSSL_sk_value(ptr noundef %34, i32 noundef %35)
  store ptr %36, ptr %6, align 8, !tbaa !25
  %37 = load i64, ptr %8, align 8, !tbaa !6
  %38 = load ptr, ptr %6, align 8, !tbaa !25
  %39 = call i64 @asn1str_to_str(ptr noundef %38)
  %40 = call i64 @rb_ary_push(i64 noundef %37, i64 noundef %39)
  br label %41

41:                                               ; preds = %32
  %42 = load i32, ptr %7, align 4, !tbaa !29
  %43 = add nsw i32 %42, 1
  store i32 %43, ptr %7, align 4, !tbaa !29
  br label %26, !llvm.loop !31

44:                                               ; preds = %26
  br label %45

45:                                               ; preds = %44, %19
  %46 = load i64, ptr %8, align 8, !tbaa !6
  call void @llvm.lifetime.end.p0(i64 8, ptr %8) #16
  call void @llvm.lifetime.end.p0(i64 4, ptr %7) #16
  call void @llvm.lifetime.end.p0(i64 8, ptr %6) #16
  call void @llvm.lifetime.end.p0(i64 8, ptr %5) #16
  call void @llvm.lifetime.end.p0(i64 8, ptr %4) #16
  call void @llvm.lifetime.end.p0(i64 8, ptr %3) #16
  ret i64 %46
}