; Function Attrs: nounwind sspstrong uwtable
define internal i64 @ossl_ts_resp_get_status_text(i64 noundef %0) #0 {
  %2 = tail call i64 @rb_ary_new() #7
  %3 = tail call ptr @rb_check_typeddata(i64 noundef %0, ptr noundef nonnull @ossl_ts_resp_type) #7
  %.not = icmp eq ptr %3, null
  br i1 %.not, label %4, label %6

4:                                                ; preds = %1
  %5 = load i64, ptr @rb_eRuntimeError, align 8, !tbaa !6
  tail call void (i64, ptr, ...) @ossl_raise(i64 noundef %5, ptr noundef nonnull @.str.49) #8
  unreachable

6:                                                ; preds = %1
  %7 = tail call ptr @TS_RESP_get_status_info(ptr noundef nonnull %3) #7
  %8 = tail call ptr @TS_STATUS_INFO_get0_text(ptr noundef %7) #7
  %.not13 = icmp eq ptr %8, null
  br i1 %.not13, label %.loopexit, label %.preheader

.preheader:                                       ; preds = %6
  %9 = tail call i32 @OPENSSL_sk_num(ptr noundef nonnull %8) #7
  %10 = icmp sgt i32 %9, 0
  br i1 %10, label %.lr.ph, label %.loopexit

.lr.ph:                                           ; preds = %.preheader, %.lr.ph
  %.014 = phi i32 [ %14, %.lr.ph ], [ 0, %.preheader ]
  %11 = tail call ptr @OPENSSL_sk_value(ptr noundef nonnull %8, i32 noundef %.014) #7
  %12 = tail call i64 @asn1str_to_str(ptr noundef %11) #7
  %13 = tail call i64 @rb_ary_push(i64 noundef %2, i64 noundef %12) #7
  %14 = add nuw nsw i32 %.014, 1
  %15 = tail call i32 @OPENSSL_sk_num(ptr noundef nonnull %8) #7
  %16 = icmp slt i32 %14, %15
  br i1 %16, label %.lr.ph, label %.loopexit, !llvm.loop !19

.loopexit:                                        ; preds = %.lr.ph, %.preheader, %6
  ret i64 %2
}